target datalayout = "e-m:e-p270:32:32-p271:32:32-p272:64:64-i64:64-i128:128-f80:128-n8:16:32:64-S128"
target triple = "x86_64-pc-linux-gnu"

%struct._zend_executor_globals = type { %struct._zval_struct, %struct._zval_struct, [32 x ptr], ptr, ptr, %struct._zend_array, %struct._zend_array, ptr, i32, i8, %struct._zval_struct, i32, ptr, ptr, ptr, ptr, ptr, ptr, i64, ptr, ptr, i32, ptr, i32, i64, i32, i32, i32, i8, i8, %struct.zend_atomic_bool_s, %struct.zend_atomic_bool_s, ptr, i64, ptr, ptr, %struct._zend_array, %struct._zend_array, i32, i8, %struct._zval_struct, %struct._zval_struct, %struct._zend_stack, %struct._zend_stack, %struct._zend_stack, ptr, i32, i32, i64, ptr, ptr, ptr, %struct._zend_objects_store, %struct._zend_lazy_objects_store, ptr, ptr, ptr, [3 x %struct._zend_op], ptr, i8, i8, i64, i32, i32, ptr, [16 x %struct._HashTableIterator], ptr, %union._zend_function, %struct._zend_op, %struct._zend_array, i64, %struct.zend_get_gc_buffer, ptr, ptr, ptr, i64, i8, i32, ptr, ptr, i64, %struct._zend_call_stack, i64, i64, %struct._zend_strtod_state, [6 x ptr] }
%struct.zend_atomic_bool_s = type { i8 }
%struct._zval_struct = type { %union._zend_value, %union.anon, %union.anon.2 }
%union._zend_value = type { i64 }
%union.anon = type { i32 }
%union.anon.2 = type { i32 }
%struct._zend_stack = type { i32, i32, i32, ptr }
%struct._zend_objects_store = type { ptr, i32, i32, i32 }
%struct._zend_lazy_objects_store = type { %struct._zend_array }
%struct._HashTableIterator = type { ptr, i32, i32 }
%union._zend_function = type { %struct._zend_op_array }
%struct._zend_op_array = type { i8, [3 x i8], i32, ptr, ptr, ptr, i32, i32, ptr, ptr, ptr, ptr, i32, ptr, i32, i32, i32, ptr, ptr, ptr, ptr, ptr, i32, i32, ptr, ptr, ptr, i32, i32, i32, i32, ptr, ptr, [6 x ptr] }
%struct._zend_op = type { ptr, %union._znode_op, %union._znode_op, %union._znode_op, i32, i32, i8, i8, i8, i8 }
%union._znode_op = type { i32 }
%struct._zend_array = type { %struct._zend_refcounted_h, %union.anon.4, i32, %union.anon.6, i32, i32, i32, i32, i64, ptr }
%struct._zend_refcounted_h = type { i32, %union.anon.3 }
%union.anon.3 = type { i32 }
%union.anon.4 = type { i32 }
%union.anon.6 = type { ptr }
%struct.zend_get_gc_buffer = type { ptr, ptr, ptr }
%struct._zend_call_stack = type { ptr, i64 }
%struct._zend_strtod_state = type { [8 x ptr], ptr, ptr }
%struct._sapi_globals_struct = type { ptr, %struct.sapi_request_info, %struct.sapi_headers_struct, i64, i8, i8, %struct.stat, ptr, ptr, ptr, i64, i32, i8, double, %struct._zend_array, %struct._zval_struct, %struct._zend_fcall_info_cache, %struct.sapi_request_parse_body_context }
%struct.sapi_request_info = type { ptr, ptr, ptr, i64, ptr, ptr, ptr, ptr, i8, i8, i8, ptr, ptr, ptr, ptr, ptr, ptr, ptr, i32, i32, ptr, i32 }
%struct.sapi_headers_struct = type { %struct._zend_llist, i32, i8, ptr, ptr }
%struct._zend_llist = type { ptr, ptr, i64, i64, ptr, i8, ptr }
%struct.stat = type { i64, i64, i64, i32, i32, i32, i32, i64, i64, i64, i64, %struct.timespec, %struct.timespec, %struct.timespec, [3 x i64] }
%struct.timespec = type { i64, i64 }
%struct._zend_fcall_info_cache = type { ptr, ptr, ptr, ptr, ptr }
%struct.sapi_request_parse_body_context = type { i8, [5 x %struct.anon.8] }
%struct.anon.8 = type { i8, i64 }
%struct.php_cli_server = type { i32, %struct.php_cli_server_poller, i32, ptr, i32, i32, ptr, i64, ptr, i64, i32, %struct._zend_array, %struct._zend_array }
%struct.php_cli_server_poller = type { %struct.fd_set, %struct.fd_set, %struct.anon.9, i32 }
%struct.fd_set = type { [16 x i64] }
%struct.anon.9 = type { %struct.fd_set, %struct.fd_set }
%struct._zend_compiler_globals = type { %struct._zend_stack, ptr, ptr, i32, ptr, ptr, ptr, ptr, i8, i8, i8, i8, i8, %struct._zend_llist, ptr, i8, i8, i8, i8, ptr, i32, i32, %struct._zend_oparray_context, %struct._zend_file_context, ptr, %struct._zend_array, ptr, i64, i8, i8, i8, ptr, ptr, %struct._zend_stack, ptr, i32, ptr, ptr, i64, i64, ptr, ptr, ptr, ptr, i32, ptr, i32, %struct._zend_stack }
%struct._zend_oparray_context = type { ptr, ptr, i32, i32, i32, i32, i32, i32, i32, ptr, ptr, ptr, i32, i8 }
%struct._zend_file_context = type { %struct._zend_declarables, ptr, i8, i8, ptr, ptr, ptr, %struct._zend_array }
%struct._zend_declarables = type { i64 }
%struct._zend_file_handle = type { %union.anon.14, ptr, ptr, i8, i8, i8, ptr, i64 }
%union.anon.14 = type { %struct._zend_stream }
%struct._zend_stream = type { ptr, i32, ptr, ptr, ptr }
%struct.__jmp_buf_tag = type { [8 x i64], i32, %struct.__sigset_t }
%struct.__sigset_t = type { [16 x i64] }
%struct.anon.0 = type { i8, i8, %union.anon.1 }
%union.anon.1 = type { i16 }

@executor_globals = external global %struct._zend_executor_globals, align 8
@sapi_globals = external global %struct._sapi_globals_struct, align 8
@compiler_globals = external global %struct._zend_compiler_globals, align 8

; Function Attrs: alwaysinline nounwind uwtable
define internal zeroext i8 @zval_get_type(ptr noundef %0) #13 {
  %2 = alloca ptr, align 8
  store ptr %0, ptr %2, align 8, !tbaa !9
  %3 = load ptr, ptr %2, align 8, !tbaa !9
  %4 = getelementptr inbounds nuw %struct._zval_struct, ptr %3, i32 0, i32 1
  %5 = getelementptr inbounds nuw %struct.anon.0, ptr %4, i32 0, i32 0
  %6 = load i8, ptr %5, align 8, !tbaa !11
  ret i8 %6
}

; Function Attrs: nounwind uwtable
define internal zeroext i1 @php_cli_server_dispatch_router(ptr noundef %0, ptr noundef %1) #0 {
  %3 = alloca ptr, align 8
  %4 = alloca ptr, align 8
  %5 = alloca i8, align 1
  %6 = alloca %struct._zend_file_handle, align 8
  %7 = alloca ptr, align 8
  %8 = alloca i8, align 1
  %9 = alloca ptr, align 8
  %10 = alloca ptr, align 8
  %11 = alloca [1 x %struct.__jmp_buf_tag], align 16
  %12 = alloca %struct._zval_struct, align 8
  %13 = alloca i32, align 4
  %14 = alloca i8, align 1
  %15 = alloca i32, align 4
  store ptr %0, ptr %3, align 8, !tbaa !125
  store ptr %1, ptr %4, align 8, !tbaa !60
  call void @llvm.lifetime.start.p0(i64 1, ptr %5) #20
  store i8 0, ptr %5, align 1, !tbaa !69
  call void @llvm.lifetime.start.p0(i64 80, ptr %6) #20
  call void @llvm.lifetime.start.p0(i64 8, ptr %7) #20
  call void @llvm.lifetime.start.p0(i64 1, ptr %8) #20
  store i8 0, ptr %8, align 1, !tbaa !69
  br i1 false, label %16, label %18

16:                                               ; preds = %2
  %17 = call noalias ptr @_emalloc_large(i64 noundef 4096) #22
  br label %20

18:                                               ; preds = %2
  %19 = alloca i8, i64 4096, align 16
  br label %20

20:                                               ; preds = %18, %16
  %21 = phi ptr [ %17, %16 ], [ %19, %18 ]
  store ptr %21, ptr %7, align 8, !tbaa !67
  %22 = load ptr, ptr %7, align 8, !tbaa !67
  %23 = getelementptr inbounds i8, ptr %22, i64 0
  store i8 0, ptr %23, align 1, !tbaa !11
  call void @llvm.lifetime.start.p0(i64 8, ptr %9) #20
  %24 = load ptr, ptr %7, align 8, !tbaa !67
  %25 = call ptr @getcwd(ptr noundef %24, i64 noundef 4095) #20
  store ptr %25, ptr %9, align 8, !tbaa !67
  call void @llvm.lifetime.end.p0(i64 8, ptr %9) #20
  %26 = load ptr, ptr %3, align 8, !tbaa !125
  %27 = getelementptr inbounds nuw %struct.php_cli_server, ptr %26, i32 0, i32 8
  %28 = load ptr, ptr %27, align 8, !tbaa !112
  call void @zend_stream_init_filename(ptr noundef %6, ptr noundef %28)
  %29 = getelementptr inbounds nuw %struct._zend_file_handle, ptr %6, i32 0, i32 4
  store i8 1, ptr %29, align 1, !tbaa !258
  call void @llvm.lifetime.start.p0(i64 8, ptr %10) #20
  %30 = load ptr, ptr getelementptr inbounds nuw (%struct._zend_executor_globals, ptr @executor_globals, i32 0, i32 7), align 8, !tbaa !260
  store ptr %30, ptr %10, align 8, !tbaa !261
  call void @llvm.lifetime.start.p0(i64 200, ptr %11) #20
  store ptr %11, ptr getelementptr inbounds nuw (%struct._zend_executor_globals, ptr @executor_globals, i32 0, i32 7), align 8, !tbaa !260
  %31 = getelementptr inbounds [1 x %struct.__jmp_buf_tag], ptr %11, i64 0, i64 0
  %32 = call i32 @__sigsetjmp(ptr noundef %31, i32 noundef 0) #27
  %33 = icmp eq i32 %32, 0
  br i1 %33, label %34, label %58

34:                                               ; preds = %20
  call void @llvm.lifetime.start.p0(i64 16, ptr %12) #20
  br label %35

35:                                               ; preds = %34
  %36 = getelementptr inbounds nuw %struct._zval_struct, ptr %12, i32 0, i32 1
  store i32 0, ptr %36, align 8, !tbaa !11
  br label %37

37:                                               ; preds = %35
  br label %38

38:                                               ; preds = %37
  call void @llvm.lifetime.start.p0(i64 4, ptr %13) #20
  %39 = load i32, ptr getelementptr inbounds nuw (%struct._sapi_globals_struct, ptr @sapi_globals, i32 0, i32 11), align 8, !tbaa !262
  store i32 %39, ptr %13, align 4, !tbaa !117
  %40 = load i32, ptr getelementptr inbounds nuw (%struct._sapi_globals_struct, ptr @sapi_globals, i32 0, i32 11), align 8, !tbaa !262
  %41 = or i32 %40, 1
  store i32 %41, ptr getelementptr inbounds nuw (%struct._sapi_globals_struct, ptr @sapi_globals, i32 0, i32 11), align 8, !tbaa !262
  store i8 1, ptr getelementptr inbounds nuw (%struct._zend_compiler_globals, ptr @compiler_globals, i32 0, i32 15), align 8, !tbaa !263
  call void @llvm.lifetime.start.p0(i64 1, ptr %14) #20
  %42 = call zeroext i1 @php_execute_script_ex(ptr noundef %6, ptr noundef %12)
  %43 = zext i1 %42 to i8
  store i8 %43, ptr %14, align 1, !tbaa !69
  %44 = load i32, ptr %13, align 4, !tbaa !117
  store i32 %44, ptr getelementptr inbounds nuw (%struct._sapi_globals_struct, ptr @sapi_globals, i32 0, i32 11), align 8, !tbaa !262
  %45 = load i8, ptr %14, align 1, !tbaa !69, !range !70, !noundef !71
  %46 = trunc i8 %45 to i1
  br i1 %46, label %47, label %57

47:                                               ; preds = %38
  %48 = call zeroext i8 @zval_get_type(ptr noundef %12)
  %49 = zext i8 %48 to i32
  %50 = icmp ne i32 %49, 0
  br i1 %50, label %51, label %56

51:                                               ; preds = %47
  %52 = call zeroext i8 @zval_get_type(ptr noundef %12)
  %53 = zext i8 %52 to i32
  %54 = icmp eq i32 %53, 2
  %55 = zext i1 %54 to i8
  store i8 %55, ptr %5, align 1, !tbaa !69
  call void @zval_ptr_dtor(ptr noundef %12)
  br label %56

56:                                               ; preds = %51, %47
  br label %57

57:                                               ; preds = %56, %38
  call void @llvm.lifetime.end.p0(i64 1, ptr %14) #20
  call void @llvm.lifetime.end.p0(i64 4, ptr %13) #20
  call void @llvm.lifetime.end.p0(i64 16, ptr %12) #20
  br label %58

58:                                               ; preds = %57, %20
  %59 = load ptr, ptr %10, align 8, !tbaa !261
  store ptr %59, ptr getelementptr inbounds nuw (%struct._zend_executor_globals, ptr @executor_globals, i32 0, i32 7), align 8, !tbaa !260
  call void @llvm.lifetime.end.p0(i64 200, ptr %11) #20
  call void @llvm.lifetime.end.p0(i64 8, ptr %10) #20
  call void @zend_destroy_file_handle(ptr noundef %6)
  %60 = load ptr, ptr %7, align 8, !tbaa !67
  %61 = getelementptr inbounds i8, ptr %60, i64 0
  %62 = load i8, ptr %61, align 1, !tbaa !11
  %63 = sext i8 %62 to i32
  %64 = icmp ne i32 %63, 0
  br i1 %64, label %65, label %68

65:                                               ; preds = %58
  call void @llvm.lifetime.start.p0(i64 4, ptr %15) #20
  %66 = load ptr, ptr %7, align 8, !tbaa !67
  %67 = call i32 @chdir(ptr noundef %66) #20
  store i32 %67, ptr %15, align 4, !tbaa !117
  call void @llvm.lifetime.end.p0(i64 4, ptr %15) #20
  br label %68

68:                                               ; preds = %65, %58
  br label %69

69:                                               ; preds = %68
  %70 = load i8, ptr %8, align 1, !tbaa !69, !range !70, !noundef !71
  %71 = trunc i8 %70 to i1
  %72 = xor i1 %71, true
  %73 = xor i1 %72, true
  %74 = zext i1 %73 to i32
  %75 = sext i32 %74 to i64
  %76 = call i64 @llvm.expect.i64(i64 %75, i64 0)
  %77 = icmp ne i64 %76, 0
  br i1 %77, label %78, label %80

78:                                               ; preds = %69
  %79 = load ptr, ptr %7, align 8, !tbaa !67
  call void @_efree(ptr noundef %79)
  br label %80

80:                                               ; preds = %78, %69
  br label %81

81:                                               ; preds = %80
  br label %82

82:                                               ; preds = %81
  %83 = load i8, ptr %5, align 1, !tbaa !69, !range !70, !noundef !71
  %84 = trunc i8 %83 to i1
  call void @llvm.lifetime.end.p0(i64 1, ptr %8) #20
  call void @llvm.lifetime.end.p0(i64 8, ptr %7) #20
  call void @llvm.lifetime.end.p0(i64 80, ptr %6) #20
  call void @llvm.lifetime.end.p0(i64 1, ptr %5) #20
  ret i1 %84
}