; Function Attrs: nounwind uwtable
define internal fastcc zeroext i1 @php_cli_server_dispatch_router(ptr noundef readonly captures(none) %0) unnamed_addr #0 {
  %2 = alloca %struct._zend_file_handle, align 8
  %3 = alloca [1 x %struct.__jmp_buf_tag], align 16
  %4 = alloca %struct._zval_struct, align 8
  call void @llvm.lifetime.start.p0(i64 80, ptr nonnull %2) #29
  %5 = alloca [4096 x i8], align 16
  store i8 0, ptr %5, align 16, !tbaa !4
  %6 = call ptr @getcwd(ptr noundef nonnull %5, i64 noundef 4095) #29
  %7 = getelementptr inbounds nuw i8, ptr %0, i64 568
  %8 = load ptr, ptr %7, align 8, !tbaa !112
  call void @zend_stream_init_filename(ptr noundef nonnull %2, ptr noundef %8) #29
  %9 = getelementptr inbounds nuw i8, ptr %2, i64 57
  store i8 1, ptr %9, align 1, !tbaa !223
  %10 = load ptr, ptr getelementptr inbounds nuw (i8, ptr @executor_globals, i64 416), align 8, !tbaa !225
  call void @llvm.lifetime.start.p0(i64 200, ptr nonnull %3) #29
  store ptr %3, ptr getelementptr inbounds nuw (i8, ptr @executor_globals, i64 416), align 8, !tbaa !225
  %11 = call i32 @__sigsetjmp(ptr noundef nonnull %3, i32 noundef 0) #38
  %12 = icmp eq i32 %11, 0
  br i1 %12, label %13, label %23

13:                                               ; preds = %1
  call void @llvm.lifetime.start.p0(i64 16, ptr nonnull %4) #29
  %14 = getelementptr inbounds nuw i8, ptr %4, i64 8
  store i32 0, ptr %14, align 8, !tbaa !4
  %15 = load i32, ptr getelementptr inbounds nuw (i8, ptr @sapi_globals, i64 432), align 8, !tbaa !226
  %16 = or i32 %15, 1
  store i32 %16, ptr getelementptr inbounds nuw (i8, ptr @sapi_globals, i64 432), align 8, !tbaa !226
  store i8 1, ptr getelementptr inbounds nuw (i8, ptr @compiler_globals, i64 152), align 8, !tbaa !227
  %17 = call zeroext i1 @php_execute_script_ex(ptr noundef nonnull %2, ptr noundef nonnull %4) #29
  store i32 %15, ptr getelementptr inbounds nuw (i8, ptr @sapi_globals, i64 432), align 8, !tbaa !226
  br i1 %17, label %18, label %22

18:                                               ; preds = %13
  %19 = load i8, ptr %14, align 8, !tbaa !4
  %.not = icmp eq i8 %19, 0
  br i1 %.not, label %22, label %20

20:                                               ; preds = %18
  %21 = icmp eq i8 %19, 2
  call void @zval_ptr_dtor(ptr noundef nonnull %4) #29
  br label %22

22:                                               ; preds = %18, %20, %13
  %.1 = phi i1 [ %21, %20 ], [ false, %18 ], [ false, %13 ]
  call void @llvm.lifetime.end.p0(i64 16, ptr nonnull %4) #29
  br label %23

23:                                               ; preds = %22, %1
  %.0 = phi i1 [ %.1, %22 ], [ false, %1 ]
  store ptr %10, ptr getelementptr inbounds nuw (i8, ptr @executor_globals, i64 416), align 8, !tbaa !225
  call void @llvm.lifetime.end.p0(i64 200, ptr nonnull %3) #29
  call void @zend_destroy_file_handle(ptr noundef nonnull %2) #29
  %24 = load i8, ptr %5, align 16, !tbaa !4
  %.not10 = icmp eq i8 %24, 0
  br i1 %.not10, label %27, label %25

25:                                               ; preds = %23
  %26 = call i32 @chdir(ptr noundef nonnull %5) #29
  br label %27

27:                                               ; preds = %25, %23
  call void @llvm.lifetime.end.p0(i64 80, ptr nonnull %2) #29
  ret i1 %.0
}